; Function Attrs: nounwind uwtable
define dso_local void @zend_register_string_constant(ptr noundef %0, i64 noundef %1, ptr noundef %2, i32 noundef %3, i32 noundef %4) local_unnamed_addr #0 {
  %6 = alloca %struct._zend_constant, align 8
  %7 = tail call i64 @strlen(ptr noundef nonnull dereferenceable(1) %2) #13
  call void @llvm.lifetime.start.p0(i64 32, ptr nonnull %6) #11
  %8 = load ptr, ptr @zend_string_init_interned, align 8, !tbaa !48
  %9 = and i32 %3, 1
  %10 = icmp ne i32 %9, 0
  %11 = tail call ptr %8(ptr noundef nonnull %2, i64 noundef %7, i1 noundef zeroext %10) #11
  store ptr %11, ptr %6, align 8, !tbaa !4
  %12 = getelementptr inbounds nuw i8, ptr %11, i64 4
  %13 = load i32, ptr %12, align 4, !tbaa !4
  %14 = and i32 %13, 64
  %.not.i = icmp eq i32 %14, 0
  %15 = select i1 %.not.i, i32 262, i32 6
  %16 = getelementptr inbounds nuw i8, ptr %6, i64 8
  store i32 %15, ptr %16, align 8, !tbaa !4
  %17 = and i32 %3, 255
  %18 = shl i32 %4, 8
  %19 = or disjoint i32 %18, %17
  %20 = getelementptr inbounds nuw i8, ptr %6, i64 12
  store i32 %19, ptr %20, align 4, !tbaa !4
  %21 = load ptr, ptr @zend_string_init_interned, align 8, !tbaa !48
  %22 = tail call ptr %21(ptr noundef %0, i64 noundef %1, i1 noundef zeroext %10) #11
  %23 = getelementptr inbounds nuw i8, ptr %6, i64 16
  store ptr %22, ptr %23, align 8, !tbaa !10
  %24 = call i32 @zend_register_constant(ptr noundef nonnull %6)
  call void @llvm.lifetime.end.p0(i64 32, ptr nonnull %6) #11
  ret void
}